target datalayout = "e-m:e-p270:32:32-p271:32:32-p272:64:64-i64:64-i128:128-f80:128-n8:16:32:64-S128"
target triple = "x86_64-pc-linux-gnu"

@hf_gvsp_payloadtype = internal global i32 0, align 4
@hf_gvsp_timestamp = internal global i32 0, align 4
@hf_gvsp_payloaddatasize = internal global i32 0, align 4
@hf_gvsp_fieldinfo = internal global i32 0, align 4
@hf_gvsp_genericflags = internal global i32 0, align 4
@hf_gvsp_timestamptickfrequency = internal global i32 0, align 4
@hf_gvsp_dataformat = internal global i32 0, align 4
@ett_gvsp_fieldinfo = internal global i32 0, align 4
@fieldinfo_fields = internal constant [3 x ptr] [ptr @hf_gvsp_fieldid, ptr @hf_gvsp_fieldcount, ptr null], align 16

; Function Attrs: null_pointer_is_valid sspstrong uwtable
define internal i32 @dissect_jpeg_leader(ptr noundef %0, ptr noundef %1, ptr noundef %2, i32 noundef %3) #0 {
  %5 = alloca ptr, align 8
  %6 = alloca ptr, align 8
  %7 = alloca ptr, align 8
  %8 = alloca i32, align 4
  store ptr %0, ptr %5, align 8
  store ptr %1, ptr %6, align 8
  store ptr %2, ptr %7, align 8
  store i32 %3, ptr %8, align 4
  %9 = load ptr, ptr %5, align 8
  %10 = load ptr, ptr %6, align 8
  %11 = load i32, ptr %8, align 4
  %12 = load i32, ptr @hf_gvsp_fieldinfo, align 4
  %13 = load i32, ptr @ett_gvsp_fieldinfo, align 4
  %14 = call ptr @proto_tree_add_bitmask(ptr noundef %9, ptr noundef %10, i32 noundef %11, i32 noundef %12, i32 noundef %13, ptr noundef @fieldinfo_fields, i32 noundef 0)
  %15 = load ptr, ptr %5, align 8
  %16 = load i32, ptr @hf_gvsp_genericflags, align 4
  %17 = load ptr, ptr %6, align 8
  %18 = load i32, ptr %8, align 4
  %19 = add i32 %18, 1
  %20 = call ptr @proto_tree_add_item(ptr noundef %15, i32 noundef %16, ptr noundef %17, i32 noundef %19, i32 noundef 1, i32 noundef 0)
  %21 = load ptr, ptr %5, align 8
  %22 = load i32, ptr @hf_gvsp_payloadtype, align 4
  %23 = load ptr, ptr %6, align 8
  %24 = load i32, ptr %8, align 4
  %25 = add i32 %24, 2
  %26 = call ptr @proto_tree_add_item(ptr noundef %21, i32 noundef %22, ptr noundef %23, i32 noundef %25, i32 noundef 2, i32 noundef 0)
  %27 = load ptr, ptr %5, align 8
  %28 = load i32, ptr @hf_gvsp_timestamp, align 4
  %29 = load ptr, ptr %6, align 8
  %30 = load i32, ptr %8, align 4
  %31 = add i32 %30, 4
  %32 = call ptr @proto_tree_add_item(ptr noundef %27, i32 noundef %28, ptr noundef %29, i32 noundef %31, i32 noundef 8, i32 noundef 0)
  %33 = load ptr, ptr %5, align 8
  %34 = load i32, ptr @hf_gvsp_payloaddatasize, align 4
  %35 = load ptr, ptr %6, align 8
  %36 = load i32, ptr %8, align 4
  %37 = add i32 %36, 12
  %38 = call ptr @proto_tree_add_item(ptr noundef %33, i32 noundef %34, ptr noundef %35, i32 noundef %37, i32 noundef 8, i32 noundef 0)
  %39 = load ptr, ptr %5, align 8
  %40 = load i32, ptr @hf_gvsp_timestamptickfrequency, align 4
  %41 = load ptr, ptr %6, align 8
  %42 = load i32, ptr %8, align 4
  %43 = add i32 %42, 20
  %44 = call ptr @proto_tree_add_item(ptr noundef %39, i32 noundef %40, ptr noundef %41, i32 noundef %43, i32 noundef 8, i32 noundef 0)
  %45 = load ptr, ptr %5, align 8
  %46 = load i32, ptr @hf_gvsp_dataformat, align 4
  %47 = load ptr, ptr %6, align 8
  %48 = load i32, ptr %8, align 4
  %49 = add i32 %48, 28
  %50 = call ptr @proto_tree_add_item(ptr noundef %45, i32 noundef %46, ptr noundef %47, i32 noundef %49, i32 noundef 4, i32 noundef 0)
  ret i32 32
}