; Function Attrs: null_pointer_is_valid sspstrong uwtable
define internal fastcc void @dissect_jpeg_leader(ptr noundef %0, ptr noundef %1, i32 noundef range(i32 8, 21) %2) unnamed_addr #0 {
  %4 = load i32, ptr @hf_gvsp_fieldinfo, align 4
  %5 = load i32, ptr @ett_gvsp_fieldinfo, align 4
  %6 = tail call ptr @proto_tree_add_bitmask(ptr noundef %0, ptr noundef %1, i32 noundef %2, i32 noundef %4, i32 noundef %5, ptr noundef nonnull @fieldinfo_fields, i32 noundef 0)
  %7 = load i32, ptr @hf_gvsp_genericflags, align 4
  %8 = add nuw nsw i32 %2, 1
  %9 = tail call ptr @proto_tree_add_item(ptr noundef %0, i32 noundef %7, ptr noundef %1, i32 noundef %8, i32 noundef 1, i32 noundef 0)
  %10 = load i32, ptr @hf_gvsp_payloadtype, align 4
  %11 = add nuw nsw i32 %2, 2
  %12 = tail call ptr @proto_tree_add_item(ptr noundef %0, i32 noundef %10, ptr noundef %1, i32 noundef %11, i32 noundef 2, i32 noundef 0)
  %13 = load i32, ptr @hf_gvsp_timestamp, align 4
  %14 = add nuw nsw i32 %2, 4
  %15 = tail call ptr @proto_tree_add_item(ptr noundef %0, i32 noundef %13, ptr noundef %1, i32 noundef %14, i32 noundef 8, i32 noundef 0)
  %16 = load i32, ptr @hf_gvsp_payloaddatasize, align 4
  %17 = add nuw nsw i32 %2, 12
  %18 = tail call ptr @proto_tree_add_item(ptr noundef %0, i32 noundef %16, ptr noundef %1, i32 noundef %17, i32 noundef 8, i32 noundef 0)
  %19 = load i32, ptr @hf_gvsp_timestamptickfrequency, align 4
  %20 = add nuw nsw i32 %2, 20
  %21 = tail call ptr @proto_tree_add_item(ptr noundef %0, i32 noundef %19, ptr noundef %1, i32 noundef %20, i32 noundef 8, i32 noundef 0)
  %22 = load i32, ptr @hf_gvsp_dataformat, align 4
  %23 = add nuw nsw i32 %2, 28
  %24 = tail call ptr @proto_tree_add_item(ptr noundef %0, i32 noundef %22, ptr noundef %1, i32 noundef %23, i32 noundef 4, i32 noundef 0)
  ret void
}